target datalayout = "e-m:e-p270:32:32-p271:32:32-p272:64:64-i64:64-i128:128-f80:128-n8:16:32:64-S128"
target triple = "x86_64-pc-linux-gnu"

%struct.polymorphic_actuals = type { i32, i32, i32, i32 }

@.str.1 = private unnamed_addr constant [10 x i8] c"funcapi.c\00", align 1
@.str.23 = private unnamed_addr constant [49 x i8] c"argument declared %s is not an array but type %s\00", align 1
@.str.24 = private unnamed_addr constant [9 x i8] c"anyarray\00", align 1
@__func__.resolve_anyelement_from_others = private unnamed_addr constant [31 x i8] c"resolve_anyelement_from_others\00", align 1
@.str.25 = private unnamed_addr constant [53 x i8] c"argument declared %s is not a range type but type %s\00", align 1
@.str.26 = private unnamed_addr constant [9 x i8] c"anyrange\00", align 1
@.str.27 = private unnamed_addr constant [58 x i8] c"argument declared %s is not a multirange type but type %s\00", align 1
@.str.28 = private unnamed_addr constant [14 x i8] c"anymultirange\00", align 1
@.str.29 = private unnamed_addr constant [63 x i8] c"argument declared %s does not contain a range type but type %s\00", align 1
@.str.30 = private unnamed_addr constant [37 x i8] c"could not determine polymorphic type\00", align 1

; Function Attrs: nounwind uwtable
define internal void @resolve_anyelement_from_others(ptr noundef %0) #0 {
  %2 = alloca ptr, align 8
  %3 = alloca i32, align 4
  %4 = alloca i32, align 4
  %5 = alloca i32, align 4
  %6 = alloca i32, align 4
  %7 = alloca i32, align 4
  %8 = alloca i32, align 4
  %9 = alloca i32, align 4
  %10 = alloca i32, align 4
  store ptr %0, ptr %2, align 8
  %11 = load ptr, ptr %2, align 8
  %12 = getelementptr inbounds nuw %struct.polymorphic_actuals, ptr %11, i32 0, i32 1
  %13 = load i32, ptr %12, align 4
  %14 = icmp ne i32 %13, 0
  br i1 %14, label %15, label %42

15:                                               ; preds = %1
  call void @llvm.lifetime.start.p0(i64 4, ptr %3) #7
  %16 = load ptr, ptr %2, align 8
  %17 = getelementptr inbounds nuw %struct.polymorphic_actuals, ptr %16, i32 0, i32 1
  %18 = load i32, ptr %17, align 4
  %19 = call i32 @getBaseType(i32 noundef %18)
  store i32 %19, ptr %3, align 4
  call void @llvm.lifetime.start.p0(i64 4, ptr %4) #7
  %20 = load i32, ptr %3, align 4
  %21 = call i32 @get_element_type(i32 noundef %20)
  store i32 %21, ptr %4, align 4
  %22 = load i32, ptr %4, align 4
  %23 = icmp ne i32 %22, 0
  br i1 %23, label %38, label %24

24:                                               ; preds = %15
  br label %25

25:                                               ; preds = %24
  br i1 true, label %26, label %28

26:                                               ; preds = %25
  %27 = call zeroext i1 @errstart_cold(i32 noundef 21, ptr noundef null) #8
  br i1 %27, label %30, label %35

28:                                               ; preds = %25
  %29 = call zeroext i1 @errstart(i32 noundef 21, ptr noundef null)
  br i1 %29, label %30, label %35

30:                                               ; preds = %28, %26
  %31 = call i32 @errcode(i32 noundef 67141764)
  %32 = load i32, ptr %3, align 4
  %33 = call ptr @format_type_be(i32 noundef %32)
  %34 = call i32 (ptr, ...) @errmsg(ptr noundef @.str.23, ptr noundef @.str.24, ptr noundef %33)
  call void @errfinish(ptr noundef @.str.1, i32 noundef 602, ptr noundef @__func__.resolve_anyelement_from_others)
  br label %35

35:                                               ; preds = %30, %28, %26
  unreachable

36:                                               ; No predecessors!
  br label %37

37:                                               ; preds = %36
  br label %38

38:                                               ; preds = %37, %15
  %39 = load i32, ptr %4, align 4
  %40 = load ptr, ptr %2, align 8
  %41 = getelementptr inbounds nuw %struct.polymorphic_actuals, ptr %40, i32 0, i32 0
  store i32 %39, ptr %41, align 4
  call void @llvm.lifetime.end.p0(i64 4, ptr %4) #7
  call void @llvm.lifetime.end.p0(i64 4, ptr %3) #7
  br label %139

42:                                               ; preds = %1
  %43 = load ptr, ptr %2, align 8
  %44 = getelementptr inbounds nuw %struct.polymorphic_actuals, ptr %43, i32 0, i32 2
  %45 = load i32, ptr %44, align 4
  %46 = icmp ne i32 %45, 0
  br i1 %46, label %47, label %74

47:                                               ; preds = %42
  call void @llvm.lifetime.start.p0(i64 4, ptr %5) #7
  %48 = load ptr, ptr %2, align 8
  %49 = getelementptr inbounds nuw %struct.polymorphic_actuals, ptr %48, i32 0, i32 2
  %50 = load i32, ptr %49, align 4
  %51 = call i32 @getBaseType(i32 noundef %50)
  store i32 %51, ptr %5, align 4
  call void @llvm.lifetime.start.p0(i64 4, ptr %6) #7
  %52 = load i32, ptr %5, align 4
  %53 = call i32 @get_range_subtype(i32 noundef %52)
  store i32 %53, ptr %6, align 4
  %54 = load i32, ptr %6, align 4
  %55 = icmp ne i32 %54, 0
  br i1 %55, label %70, label %56

56:                                               ; preds = %47
  br label %57

57:                                               ; preds = %56
  br i1 true, label %58, label %60

58:                                               ; preds = %57
  %59 = call zeroext i1 @errstart_cold(i32 noundef 21, ptr noundef null) #8
  br i1 %59, label %62, label %67

60:                                               ; preds = %57
  %61 = call zeroext i1 @errstart(i32 noundef 21, ptr noundef null)
  br i1 %61, label %62, label %67

62:                                               ; preds = %60, %58
  %63 = call i32 @errcode(i32 noundef 67141764)
  %64 = load i32, ptr %5, align 4
  %65 = call ptr @format_type_be(i32 noundef %64)
  %66 = call i32 (ptr, ...) @errmsg(ptr noundef @.str.25, ptr noundef @.str.26, ptr noundef %65)
  call void @errfinish(ptr noundef @.str.1, i32 noundef 616, ptr noundef @__func__.resolve_anyelement_from_others)
  br label %67

67:                                               ; preds = %62, %60, %58
  unreachable

68:                                               ; No predecessors!
  br label %69

69:                                               ; preds = %68
  br label %70

70:                                               ; preds = %69, %47
  %71 = load i32, ptr %6, align 4
  %72 = load ptr, ptr %2, align 8
  %73 = getelementptr inbounds nuw %struct.polymorphic_actuals, ptr %72, i32 0, i32 0
  store i32 %71, ptr %73, align 4
  call void @llvm.lifetime.end.p0(i64 4, ptr %6) #7
  call void @llvm.lifetime.end.p0(i64 4, ptr %5) #7
  br label %138

74:                                               ; preds = %42
  %75 = load ptr, ptr %2, align 8
  %76 = getelementptr inbounds nuw %struct.polymorphic_actuals, ptr %75, i32 0, i32 3
  %77 = load i32, ptr %76, align 4
  %78 = icmp ne i32 %77, 0
  br i1 %78, label %79, label %127

79:                                               ; preds = %74
  call void @llvm.lifetime.start.p0(i64 4, ptr %7) #7
  call void @llvm.lifetime.start.p0(i64 4, ptr %8) #7
  call void @llvm.lifetime.start.p0(i64 4, ptr %9) #7
  call void @llvm.lifetime.start.p0(i64 4, ptr %10) #7
  %80 = load ptr, ptr %2, align 8
  %81 = getelementptr inbounds nuw %struct.polymorphic_actuals, ptr %80, i32 0, i32 3
  %82 = load i32, ptr %81, align 4
  %83 = call i32 @getBaseType(i32 noundef %82)
  store i32 %83, ptr %7, align 4
  %84 = load i32, ptr %7, align 4
  %85 = call i32 @get_multirange_range(i32 noundef %84)
  store i32 %85, ptr %8, align 4
  %86 = load i32, ptr %8, align 4
  %87 = icmp ne i32 %86, 0
  br i1 %87, label %102, label %88

88:                                               ; preds = %79
  br label %89

89:                                               ; preds = %88
  br i1 true, label %90, label %92

90:                                               ; preds = %89
  %91 = call zeroext i1 @errstart_cold(i32 noundef 21, ptr noundef null) #8
  br i1 %91, label %94, label %99

92:                                               ; preds = %89
  %93 = call zeroext i1 @errstart(i32 noundef 21, ptr noundef null)
  br i1 %93, label %94, label %99

94:                                               ; preds = %92, %90
  %95 = call i32 @errcode(i32 noundef 67141764)
  %96 = load i32, ptr %7, align 4
  %97 = call ptr @format_type_be(i32 noundef %96)
  %98 = call i32 (ptr, ...) @errmsg(ptr noundef @.str.27, ptr noundef @.str.28, ptr noundef %97)
  call void @errfinish(ptr noundef @.str.1, i32 noundef 634, ptr noundef @__func__.resolve_anyelement_from_others)
  br label %99

99:                                               ; preds = %94, %92, %90
  unreachable

100:                                              ; No predecessors!
  br label %101

101:                                              ; preds = %100
  br label %102

102:                                              ; preds = %101, %79
  %103 = load i32, ptr %8, align 4
  %104 = call i32 @getBaseType(i32 noundef %103)
  store i32 %104, ptr %9, align 4
  %105 = load i32, ptr %9, align 4
  %106 = call i32 @get_range_subtype(i32 noundef %105)
  store i32 %106, ptr %10, align 4
  %107 = load i32, ptr %10, align 4
  %108 = icmp ne i32 %107, 0
  br i1 %108, label %123, label %109

109:                                              ; preds = %102
  br label %110

110:                                              ; preds = %109
  br i1 true, label %111, label %113

111:                                              ; preds = %110
  %112 = call zeroext i1 @errstart_cold(i32 noundef 21, ptr noundef null) #8
  br i1 %112, label %115, label %120

113:                                              ; preds = %110
  %114 = call zeroext i1 @errstart(i32 noundef 21, ptr noundef null)
  br i1 %114, label %115, label %120

115:                                              ; preds = %113, %111
  %116 = call i32 @errcode(i32 noundef 67141764)
  %117 = load i32, ptr %9, align 4
  %118 = call ptr @format_type_be(i32 noundef %117)
  %119 = call i32 (ptr, ...) @errmsg(ptr noundef @.str.29, ptr noundef @.str.28, ptr noundef %118)
  call void @errfinish(ptr noundef @.str.1, i32 noundef 644, ptr noundef @__func__.resolve_anyelement_from_others)
  br label %120

120:                                              ; preds = %115, %113, %111
  unreachable

121:                                              ; No predecessors!
  br label %122

122:                                              ; preds = %121
  br label %123

123:                                              ; preds = %122, %102
  %124 = load i32, ptr %10, align 4
  %125 = load ptr, ptr %2, align 8
  %126 = getelementptr inbounds nuw %struct.polymorphic_actuals, ptr %125, i32 0, i32 0
  store i32 %124, ptr %126, align 4
  call void @llvm.lifetime.end.p0(i64 4, ptr %10) #7
  call void @llvm.lifetime.end.p0(i64 4, ptr %9) #7
  call void @llvm.lifetime.end.p0(i64 4, ptr %8) #7
  call void @llvm.lifetime.end.p0(i64 4, ptr %7) #7
  br label %137

127:                                              ; preds = %74
  br label %128

128:                                              ; preds = %127
  br i1 true, label %129, label %131

129:                                              ; preds = %128
  %130 = call zeroext i1 @errstart_cold(i32 noundef 21, ptr noundef null) #8
  br i1 %130, label %133, label %135

131:                                              ; preds = %128
  %132 = call zeroext i1 @errstart(i32 noundef 21, ptr noundef null)
  br i1 %132, label %133, label %135

133:                                              ; preds = %131, %129
  %134 = call i32 (ptr, ...) @errmsg_internal(ptr noundef @.str.30)
  call void @errfinish(ptr noundef @.str.1, i32 noundef 648, ptr noundef @__func__.resolve_anyelement_from_others)
  br label %135

135:                                              ; preds = %133, %131, %129
  unreachable

136:                                              ; No predecessors!
  br label %137

137:                                              ; preds = %136, %123
  br label %138

138:                                              ; preds = %137, %70
  br label %139

139:                                              ; preds = %138, %38
  ret void
}