; Function Attrs: nounwind uwtable
define internal fastcc void @resolve_anyelement_from_others(ptr noundef nonnull captures(none) %0) unnamed_addr #0 {
  %2 = getelementptr inbounds nuw i8, ptr %0, i64 4
  %3 = load i32, ptr %2, align 4
  %.not = icmp eq i32 %3, 0
  br i1 %.not, label %12, label %4

4:                                                ; preds = %1
  %5 = tail call i32 @getBaseType(i32 noundef %3) #8
  %6 = tail call i32 @get_element_type(i32 noundef %5) #8
  %.not35 = icmp eq i32 %6, 0
  br i1 %.not35, label %7, label %45

7:                                                ; preds = %4
  %8 = tail call zeroext i1 @errstart_cold(i32 noundef 21, ptr noundef null) #9
  tail call void @llvm.assume(i1 %8)
  %9 = tail call i32 @errcode(i32 noundef 67141764) #8
  %10 = tail call ptr @format_type_be(i32 noundef %5) #8
  %11 = tail call i32 (ptr, ...) @errmsg(ptr noundef nonnull @.str.23, ptr noundef nonnull @.str.24, ptr noundef %10) #8
  tail call void @errfinish(ptr noundef nonnull @.str.1, i32 noundef 602, ptr noundef nonnull @__func__.resolve_anyelement_from_others) #8
  unreachable

12:                                               ; preds = %1
  %13 = getelementptr inbounds nuw i8, ptr %0, i64 8
  %14 = load i32, ptr %13, align 4
  %.not30 = icmp eq i32 %14, 0
  br i1 %.not30, label %23, label %15

15:                                               ; preds = %12
  %16 = tail call i32 @getBaseType(i32 noundef %14) #8
  %17 = tail call i32 @get_range_subtype(i32 noundef %16) #8
  %.not34 = icmp eq i32 %17, 0
  br i1 %.not34, label %18, label %45

18:                                               ; preds = %15
  %19 = tail call zeroext i1 @errstart_cold(i32 noundef 21, ptr noundef null) #9
  tail call void @llvm.assume(i1 %19)
  %20 = tail call i32 @errcode(i32 noundef 67141764) #8
  %21 = tail call ptr @format_type_be(i32 noundef %16) #8
  %22 = tail call i32 (ptr, ...) @errmsg(ptr noundef nonnull @.str.25, ptr noundef nonnull @.str.26, ptr noundef %21) #8
  tail call void @errfinish(ptr noundef nonnull @.str.1, i32 noundef 616, ptr noundef nonnull @__func__.resolve_anyelement_from_others) #8
  unreachable

23:                                               ; preds = %12
  %24 = getelementptr inbounds nuw i8, ptr %0, i64 12
  %25 = load i32, ptr %24, align 4
  %.not31 = icmp eq i32 %25, 0
  br i1 %.not31, label %42, label %26

26:                                               ; preds = %23
  %27 = tail call i32 @getBaseType(i32 noundef %25) #8
  %28 = tail call i32 @get_multirange_range(i32 noundef %27) #8
  %.not32 = icmp eq i32 %28, 0
  br i1 %.not32, label %29, label %34

29:                                               ; preds = %26
  %30 = tail call zeroext i1 @errstart_cold(i32 noundef 21, ptr noundef null) #9
  tail call void @llvm.assume(i1 %30)
  %31 = tail call i32 @errcode(i32 noundef 67141764) #8
  %32 = tail call ptr @format_type_be(i32 noundef %27) #8
  %33 = tail call i32 (ptr, ...) @errmsg(ptr noundef nonnull @.str.27, ptr noundef nonnull @.str.28, ptr noundef %32) #8
  tail call void @errfinish(ptr noundef nonnull @.str.1, i32 noundef 634, ptr noundef nonnull @__func__.resolve_anyelement_from_others) #8
  unreachable

34:                                               ; preds = %26
  %35 = tail call i32 @getBaseType(i32 noundef %28) #8
  %36 = tail call i32 @get_range_subtype(i32 noundef %35) #8
  %.not33 = icmp eq i32 %36, 0
  br i1 %.not33, label %37, label %45

37:                                               ; preds = %34
  %38 = tail call zeroext i1 @errstart_cold(i32 noundef 21, ptr noundef null) #9
  tail call void @llvm.assume(i1 %38)
  %39 = tail call i32 @errcode(i32 noundef 67141764) #8
  %40 = tail call ptr @format_type_be(i32 noundef %35) #8
  %41 = tail call i32 (ptr, ...) @errmsg(ptr noundef nonnull @.str.29, ptr noundef nonnull @.str.28, ptr noundef %40) #8
  tail call void @errfinish(ptr noundef nonnull @.str.1, i32 noundef 644, ptr noundef nonnull @__func__.resolve_anyelement_from_others) #8
  unreachable

42:                                               ; preds = %23
  %43 = tail call zeroext i1 @errstart_cold(i32 noundef 21, ptr noundef null) #9
  tail call void @llvm.assume(i1 %43)
  %44 = tail call i32 (ptr, ...) @errmsg_internal(ptr noundef nonnull @.str.30) #8
  tail call void @errfinish(ptr noundef nonnull @.str.1, i32 noundef 648, ptr noundef nonnull @__func__.resolve_anyelement_from_others) #8
  unreachable

45:                                               ; preds = %34, %15, %4
  %.sink = phi i32 [ %6, %4 ], [ %17, %15 ], [ %36, %34 ]
  store i32 %.sink, ptr %0, align 4
  ret void
}